target datalayout = "e-m:e-p270:32:32-p271:32:32-p272:64:64-i64:64-i128:128-f80:128-n8:16:32:64-S128"
target triple = "x86_64-pc-linux-gnu"

%struct.ClusterInfo = type { %struct.ControlData, ptr, %struct.DbInfoArr, ptr, ptr, ptr, ptr, ptr, i16, i32, [64 x i8], i32, ptr, i32 }
%struct.ControlData = type { i32, i32, [25 x i8], i32, i32, i32, i32, i32, i32, i32, i32, i32, i32, i32, i32, i32, i32, i32, i32, i8, i8, i32 }
%struct.DbInfoArr = type { ptr, i32 }

@old_cluster = dso_local global %struct.ClusterInfo zeroinitializer, align 8
@new_cluster = dso_local global %struct.ClusterInfo zeroinitializer, align 8
@.str.28 = private unnamed_addr constant [10 x i8] c"template1\00", align 1
@.str.42 = private unnamed_addr constant [54 x i8] c"Setting frozenxid and minmxid counters in new cluster\00", align 1
@.str.43 = private unnamed_addr constant [39 x i8] c"Setting minmxid counter in new cluster\00", align 1
@.str.44 = private unnamed_addr constant [54 x i8] c"UPDATE pg_catalog.pg_database SET\09datfrozenxid = '%u'\00", align 1
@.str.45 = private unnamed_addr constant [52 x i8] c"UPDATE pg_catalog.pg_database SET\09datminmxid = '%u'\00", align 1
@.str.46 = private unnamed_addr constant [57 x i8] c"SELECT\09datname, datallowconn FROM\09pg_catalog.pg_database\00", align 1
@.str.47 = private unnamed_addr constant [8 x i8] c"datname\00", align 1
@.str.48 = private unnamed_addr constant [13 x i8] c"datallowconn\00", align 1
@.str.49 = private unnamed_addr constant [2 x i8] c"f\00", align 1
@.str.50 = private unnamed_addr constant [43 x i8] c"ALTER DATABASE %s ALLOW_CONNECTIONS = true\00", align 1
@.str.51 = private unnamed_addr constant [84 x i8] c"UPDATE\09pg_catalog.pg_class SET\09relfrozenxid = '%u' WHERE\09relkind IN ('r', 'm', 't')\00", align 1
@.str.52 = private unnamed_addr constant [82 x i8] c"UPDATE\09pg_catalog.pg_class SET\09relminmxid = '%u' WHERE\09relkind IN ('r', 'm', 't')\00", align 1
@.str.53 = private unnamed_addr constant [44 x i8] c"ALTER DATABASE %s ALLOW_CONNECTIONS = false\00", align 1

; Function Attrs: nounwind uwtable
define internal void @set_frozenxids(i1 noundef zeroext %0) #0 {
  %2 = alloca i8, align 1
  %3 = alloca i32, align 4
  %4 = alloca ptr, align 8
  %5 = alloca ptr, align 8
  %6 = alloca ptr, align 8
  %7 = alloca i32, align 4
  %8 = alloca i32, align 4
  %9 = alloca i32, align 4
  %10 = alloca ptr, align 8
  %11 = alloca ptr, align 8
  %12 = zext i1 %0 to i8
  store i8 %12, ptr %2, align 1
  call void @llvm.lifetime.start.p0(i64 4, ptr %3) #7
  call void @llvm.lifetime.start.p0(i64 8, ptr %4) #7
  call void @llvm.lifetime.start.p0(i64 8, ptr %5) #7
  call void @llvm.lifetime.start.p0(i64 8, ptr %6) #7
  call void @llvm.lifetime.start.p0(i64 4, ptr %7) #7
  call void @llvm.lifetime.start.p0(i64 4, ptr %8) #7
  call void @llvm.lifetime.start.p0(i64 4, ptr %9) #7
  %13 = load i8, ptr %2, align 1, !range !4, !noundef !5
  %14 = trunc i8 %13 to i1
  br i1 %14, label %16, label %15

15:                                               ; preds = %1
  call void (ptr, ...) @prep_status(ptr noundef @.str.42)
  br label %17

16:                                               ; preds = %1
  call void (ptr, ...) @prep_status(ptr noundef @.str.43)
  br label %17

17:                                               ; preds = %16, %15
  %18 = call ptr @connectToServer(ptr noundef @new_cluster, ptr noundef @.str.28)
  store ptr %18, ptr %5, align 8
  %19 = load i8, ptr %2, align 1, !range !4, !noundef !5
  %20 = trunc i8 %19 to i1
  br i1 %20, label %25, label %21

21:                                               ; preds = %17
  %22 = load ptr, ptr %5, align 8
  %23 = load i32, ptr getelementptr inbounds nuw (%struct.ControlData, ptr @old_cluster, i32 0, i32 3), align 4
  %24 = call ptr (ptr, ptr, ...) @executeQueryOrDie(ptr noundef %22, ptr noundef @.str.44, i32 noundef %23)
  call void @PQclear(ptr noundef %24)
  br label %25

25:                                               ; preds = %21, %17
  %26 = load ptr, ptr %5, align 8
  %27 = load i32, ptr getelementptr inbounds nuw (%struct.ControlData, ptr @old_cluster, i32 0, i32 6), align 8
  %28 = call ptr (ptr, ptr, ...) @executeQueryOrDie(ptr noundef %26, ptr noundef @.str.45, i32 noundef %27)
  call void @PQclear(ptr noundef %28)
  %29 = load ptr, ptr %5, align 8
  %30 = call ptr (ptr, ptr, ...) @executeQueryOrDie(ptr noundef %29, ptr noundef @.str.46)
  store ptr %30, ptr %6, align 8
  %31 = load ptr, ptr %6, align 8
  %32 = call i32 @PQfnumber(ptr noundef %31, ptr noundef @.str.47)
  store i32 %32, ptr %8, align 4
  %33 = load ptr, ptr %6, align 8
  %34 = call i32 @PQfnumber(ptr noundef %33, ptr noundef @.str.48)
  store i32 %34, ptr %9, align 4
  %35 = load ptr, ptr %6, align 8
  %36 = call i32 @PQntuples(ptr noundef %35)
  store i32 %36, ptr %7, align 4
  store i32 0, ptr %3, align 4
  br label %37

37:                                               ; preds = %81, %25
  %38 = load i32, ptr %3, align 4
  %39 = load i32, ptr %7, align 4
  %40 = icmp slt i32 %38, %39
  br i1 %40, label %41, label %84

41:                                               ; preds = %37
  call void @llvm.lifetime.start.p0(i64 8, ptr %10) #7
  %42 = load ptr, ptr %6, align 8
  %43 = load i32, ptr %3, align 4
  %44 = load i32, ptr %8, align 4
  %45 = call ptr @PQgetvalue(ptr noundef %42, i32 noundef %43, i32 noundef %44)
  store ptr %45, ptr %10, align 8
  call void @llvm.lifetime.start.p0(i64 8, ptr %11) #7
  %46 = load ptr, ptr %6, align 8
  %47 = load i32, ptr %3, align 4
  %48 = load i32, ptr %9, align 4
  %49 = call ptr @PQgetvalue(ptr noundef %46, i32 noundef %47, i32 noundef %48)
  store ptr %49, ptr %11, align 8
  %50 = load ptr, ptr %11, align 8
  %51 = call i32 @strcmp(ptr noundef %50, ptr noundef @.str.49) #9
  %52 = icmp eq i32 %51, 0
  br i1 %52, label %53, label %58

53:                                               ; preds = %41
  %54 = load ptr, ptr %5, align 8
  %55 = load ptr, ptr %10, align 8
  %56 = call ptr @quote_identifier(ptr noundef %55)
  %57 = call ptr (ptr, ptr, ...) @executeQueryOrDie(ptr noundef %54, ptr noundef @.str.50, ptr noundef %56)
  call void @PQclear(ptr noundef %57)
  br label %58

58:                                               ; preds = %53, %41
  %59 = load ptr, ptr %10, align 8
  %60 = call ptr @connectToServer(ptr noundef @new_cluster, ptr noundef %59)
  store ptr %60, ptr %4, align 8
  %61 = load i8, ptr %2, align 1, !range !4, !noundef !5
  %62 = trunc i8 %61 to i1
  br i1 %62, label %67, label %63

63:                                               ; preds = %58
  %64 = load ptr, ptr %4, align 8
  %65 = load i32, ptr getelementptr inbounds nuw (%struct.ControlData, ptr @old_cluster, i32 0, i32 3), align 4
  %66 = call ptr (ptr, ptr, ...) @executeQueryOrDie(ptr noundef %64, ptr noundef @.str.51, i32 noundef %65)
  call void @PQclear(ptr noundef %66)
  br label %67

67:                                               ; preds = %63, %58
  %68 = load ptr, ptr %4, align 8
  %69 = load i32, ptr getelementptr inbounds nuw (%struct.ControlData, ptr @old_cluster, i32 0, i32 6), align 8
  %70 = call ptr (ptr, ptr, ...) @executeQueryOrDie(ptr noundef %68, ptr noundef @.str.52, i32 noundef %69)
  call void @PQclear(ptr noundef %70)
  %71 = load ptr, ptr %4, align 8
  call void @PQfinish(ptr noundef %71)
  %72 = load ptr, ptr %11, align 8
  %73 = call i32 @strcmp(ptr noundef %72, ptr noundef @.str.49) #9
  %74 = icmp eq i32 %73, 0
  br i1 %74, label %75, label %80

75:                                               ; preds = %67
  %76 = load ptr, ptr %5, align 8
  %77 = load ptr, ptr %10, align 8
  %78 = call ptr @quote_identifier(ptr noundef %77)
  %79 = call ptr (ptr, ptr, ...) @executeQueryOrDie(ptr noundef %76, ptr noundef @.str.53, ptr noundef %78)
  call void @PQclear(ptr noundef %79)
  br label %80

80:                                               ; preds = %75, %67
  call void @llvm.lifetime.end.p0(i64 8, ptr %11) #7
  call void @llvm.lifetime.end.p0(i64 8, ptr %10) #7
  br label %81

81:                                               ; preds = %80
  %82 = load i32, ptr %3, align 4
  %83 = add i32 %82, 1
  store i32 %83, ptr %3, align 4
  br label %37, !llvm.loop !13

84:                                               ; preds = %37
  %85 = load ptr, ptr %6, align 8
  call void @PQclear(ptr noundef %85)
  %86 = load ptr, ptr %5, align 8
  call void @PQfinish(ptr noundef %86)
  call void @check_ok()
  call void @llvm.lifetime.end.p0(i64 4, ptr %9) #7
  call void @llvm.lifetime.end.p0(i64 4, ptr %8) #7
  call void @llvm.lifetime.end.p0(i64 4, ptr %7) #7
  call void @llvm.lifetime.end.p0(i64 8, ptr %6) #7
  call void @llvm.lifetime.end.p0(i64 8, ptr %5) #7
  call void @llvm.lifetime.end.p0(i64 8, ptr %4) #7
  call void @llvm.lifetime.end.p0(i64 4, ptr %3) #7
  ret void
}