; Function Attrs: nounwind uwtable
define internal fastcc void @set_frozenxids(i1 noundef zeroext %0) unnamed_addr #0 {
  br i1 %0, label %.thread, label %3

.thread:                                          ; preds = %1
  tail call void (ptr, ...) @prep_status(ptr noundef nonnull @.str.43) #9
  %2 = tail call ptr @connectToServer(ptr noundef nonnull @new_cluster, ptr noundef nonnull @.str.28) #9
  br label %7

3:                                                ; preds = %1
  tail call void (ptr, ...) @prep_status(ptr noundef nonnull @.str.42) #9
  %4 = tail call ptr @connectToServer(ptr noundef nonnull @new_cluster, ptr noundef nonnull @.str.28) #9
  %5 = load i32, ptr getelementptr inbounds nuw (i8, ptr @old_cluster, i64 36), align 4
  %6 = tail call ptr (ptr, ptr, ...) @executeQueryOrDie(ptr noundef %4, ptr noundef nonnull @.str.44, i32 noundef %5) #9
  tail call void @PQclear(ptr noundef %6) #9
  br label %7

7:                                                ; preds = %.thread, %3
  %8 = phi ptr [ %2, %.thread ], [ %4, %3 ]
  %9 = load i32, ptr getelementptr inbounds nuw (i8, ptr @old_cluster, i64 48), align 8
  %10 = tail call ptr (ptr, ptr, ...) @executeQueryOrDie(ptr noundef %8, ptr noundef nonnull @.str.45, i32 noundef %9) #9
  tail call void @PQclear(ptr noundef %10) #9
  %11 = tail call ptr (ptr, ptr, ...) @executeQueryOrDie(ptr noundef %8, ptr noundef nonnull @.str.46) #9
  %12 = tail call i32 @PQfnumber(ptr noundef %11, ptr noundef nonnull @.str.47) #9
  %13 = tail call i32 @PQfnumber(ptr noundef %11, ptr noundef nonnull @.str.48) #9
  %14 = tail call i32 @PQntuples(ptr noundef %11) #9
  %15 = icmp sgt i32 %14, 0
  br i1 %15, label %sub_0, label %._crit_edge

sub_0:                                            ; preds = %7, %.tail29.thread
  %.033 = phi i32 [ %38, %.tail29.thread ], [ 0, %7 ]
  %16 = tail call ptr @PQgetvalue(ptr noundef %11, i32 noundef %.033, i32 noundef %12) #9
  %17 = tail call ptr @PQgetvalue(ptr noundef %11, i32 noundef %.033, i32 noundef %13) #9
  %18 = load i8, ptr %17, align 1
  %.not = icmp eq i8 %18, 102
  br i1 %.not, label %.tail, label %.tail.thread

.tail:                                            ; preds = %sub_0
  %19 = getelementptr inbounds nuw i8, ptr %17, i64 1
  %20 = load i8, ptr %19, align 1
  %21 = icmp eq i8 %20, 0
  br i1 %21, label %22, label %.tail.thread

22:                                               ; preds = %.tail
  %23 = tail call ptr @quote_identifier(ptr noundef %16) #9
  %24 = tail call ptr (ptr, ptr, ...) @executeQueryOrDie(ptr noundef %8, ptr noundef nonnull @.str.50, ptr noundef %23) #9
  tail call void @PQclear(ptr noundef %24) #9
  br label %.tail.thread

.tail.thread:                                     ; preds = %sub_0, %22, %.tail
  %25 = tail call ptr @connectToServer(ptr noundef nonnull @new_cluster, ptr noundef %16) #9
  br i1 %0, label %sub_030, label %26

26:                                               ; preds = %.tail.thread
  %27 = load i32, ptr getelementptr inbounds nuw (i8, ptr @old_cluster, i64 36), align 4
  %28 = tail call ptr (ptr, ptr, ...) @executeQueryOrDie(ptr noundef %25, ptr noundef nonnull @.str.51, i32 noundef %27) #9
  tail call void @PQclear(ptr noundef %28) #9
  br label %sub_030

sub_030:                                          ; preds = %26, %.tail.thread
  %29 = load i32, ptr getelementptr inbounds nuw (i8, ptr @old_cluster, i64 48), align 8
  %30 = tail call ptr (ptr, ptr, ...) @executeQueryOrDie(ptr noundef %25, ptr noundef nonnull @.str.52, i32 noundef %29) #9
  tail call void @PQclear(ptr noundef %30) #9
  tail call void @PQfinish(ptr noundef %25) #9
  %31 = load i8, ptr %17, align 1
  %.not34 = icmp eq i8 %31, 102
  br i1 %.not34, label %.tail29, label %.tail29.thread

.tail29:                                          ; preds = %sub_030
  %32 = getelementptr inbounds nuw i8, ptr %17, i64 1
  %33 = load i8, ptr %32, align 1
  %34 = icmp eq i8 %33, 0
  br i1 %34, label %35, label %.tail29.thread

35:                                               ; preds = %.tail29
  %36 = tail call ptr @quote_identifier(ptr noundef %16) #9
  %37 = tail call ptr (ptr, ptr, ...) @executeQueryOrDie(ptr noundef %8, ptr noundef nonnull @.str.53, ptr noundef %36) #9
  tail call void @PQclear(ptr noundef %37) #9
  br label %.tail29.thread

.tail29.thread:                                   ; preds = %sub_030, %35, %.tail29
  %38 = add nuw nsw i32 %.033, 1
  %exitcond.not = icmp eq i32 %38, %14
  br i1 %exitcond.not, label %._crit_edge, label %sub_0, !llvm.loop !13

._crit_edge:                                      ; preds = %.tail29.thread, %7
  tail call void @PQclear(ptr noundef %11) #9
  tail call void @PQfinish(ptr noundef %8) #9
  tail call void @check_ok() #9
  ret void
}